target datalayout = "e-m:e-p270:32:32-p271:32:32-p272:64:64-i64:64-i128:128-f80:128-n8:16:32:64-S128"
target triple = "x86_64-pc-linux-gnu"

%"class.Assimp::LWOImporter" = type <{ %"class.Assimp::BaseImporter", i8, i8, i8, [5 x i8], ptr, ptr, ptr, ptr, ptr, %"class.std::vector", %"class.std::vector.3", ptr, i32, [4 x i8], ptr, i8, [3 x i8], i32, %"class.std::__cxx11::basic_string", i8, [7 x i8] }>
%"class.Assimp::BaseImporter" = type { ptr, double, double, %"class.std::__cxx11::basic_string", %"class.std::__exception_ptr::exception_ptr", ptr }
%"class.std::__exception_ptr::exception_ptr" = type { ptr }
%"class.std::vector" = type { %"struct.std::_Vector_base" }
%"struct.std::_Vector_base" = type { %"struct.std::_Vector_base<Assimp::LWO::Clip, std::allocator<Assimp::LWO::Clip>>::_Vector_impl" }
%"struct.std::_Vector_base<Assimp::LWO::Clip, std::allocator<Assimp::LWO::Clip>>::_Vector_impl" = type { %"struct.std::_Vector_base<Assimp::LWO::Clip, std::allocator<Assimp::LWO::Clip>>::_Vector_impl_data" }
%"struct.std::_Vector_base<Assimp::LWO::Clip, std::allocator<Assimp::LWO::Clip>>::_Vector_impl_data" = type { ptr, ptr, ptr }
%"class.std::vector.3" = type { %"struct.std::_Vector_base.4" }
%"struct.std::_Vector_base.4" = type { %"struct.std::_Vector_base<Assimp::LWO::Envelope, std::allocator<Assimp::LWO::Envelope>>::_Vector_impl" }
%"struct.std::_Vector_base<Assimp::LWO::Envelope, std::allocator<Assimp::LWO::Envelope>>::_Vector_impl" = type { %"struct.std::_Vector_base<Assimp::LWO::Envelope, std::allocator<Assimp::LWO::Envelope>>::_Vector_impl_data" }
%"struct.std::_Vector_base<Assimp::LWO::Envelope, std::allocator<Assimp::LWO::Envelope>>::_Vector_impl_data" = type { ptr, ptr, ptr }
%"class.std::__cxx11::basic_string" = type { %"struct.std::__cxx11::basic_string<char>::_Alloc_hider", i64, %union.anon }
%"struct.std::__cxx11::basic_string<char>::_Alloc_hider" = type { ptr }
%union.anon = type { i64, [8 x i8] }
%"struct.Assimp::LWO::Clip" = type <{ i32, [4 x i8], %"class.std::__cxx11::basic_string", i32, i32, i8, [7 x i8] }>

@.str.34 = private unnamed_addr constant [42 x i8] c"LWO2: Clip referrer index is out of range\00", align 1
@.str.35 = private unnamed_addr constant [45 x i8] c"LWO2: Clip references another clip reference\00", align 1

; Function Attrs: mustprogress uwtable
define available_externally noundef nonnull align 8 dereferenceable(32) ptr @_ZNSt7__cxx1112basic_stringIcSt11char_traitsIcESaIcEE6assignERKS4_(ptr noundef nonnull align 8 dereferenceable(32) %0, ptr noundef nonnull align 8 dereferenceable(32) %1) #3 align 2 {
  %3 = alloca ptr, align 8
  %4 = alloca ptr, align 8
  store ptr %0, ptr %3, align 8
  store ptr %1, ptr %4, align 8
  %5 = load ptr, ptr %3, align 8
  %6 = load ptr, ptr %4, align 8
  call void @_ZNSt7__cxx1112basic_stringIcSt11char_traitsIcESaIcEE9_M_assignERKS4_(ptr noundef nonnull align 8 dereferenceable(32) %5, ptr noundef nonnull align 8 dereferenceable(32) %6)
  ret ptr %5
}

; Function Attrs: mustprogress uwtable
define available_externally noundef nonnull align 8 dereferenceable(32) ptr @_ZNSt7__cxx1112basic_stringIcSt11char_traitsIcESaIcEEaSERKS4_(ptr noundef nonnull align 8 dereferenceable(32) %0, ptr noundef nonnull align 8 dereferenceable(32) %1) #3 align 2 {
  %3 = alloca ptr, align 8
  %4 = alloca ptr, align 8
  store ptr %0, ptr %3, align 8
  store ptr %1, ptr %4, align 8
  %5 = load ptr, ptr %3, align 8
  %6 = load ptr, ptr %4, align 8
  %7 = call noundef nonnull align 8 dereferenceable(32) ptr @_ZNSt7__cxx1112basic_stringIcSt11char_traitsIcESaIcEE6assignERKS4_(ptr noundef nonnull align 8 dereferenceable(32) %5, ptr noundef nonnull align 8 dereferenceable(32) %6)
  ret ptr %7
}

; Function Attrs: mustprogress nounwind uwtable
define linkonce_odr hidden noundef nonnull align 8 dereferenceable(49) ptr @_ZNSt6vectorIN6Assimp3LWO4ClipESaIS2_EEixEm(ptr noundef nonnull align 8 dereferenceable(24) %0, i64 noundef %1) #0 comdat align 2 {
  %3 = alloca ptr, align 8
  %4 = alloca i64, align 8
  store ptr %0, ptr %3, align 8
  store i64 %1, ptr %4, align 8
  %5 = load ptr, ptr %3, align 8
  %6 = getelementptr inbounds nuw %"struct.std::_Vector_base", ptr %5, i32 0, i32 0
  %7 = getelementptr inbounds nuw %"struct.std::_Vector_base<Assimp::LWO::Clip, std::allocator<Assimp::LWO::Clip>>::_Vector_impl_data", ptr %6, i32 0, i32 0
  %8 = load ptr, ptr %7, align 8
  %9 = load i64, ptr %4, align 8
  %10 = getelementptr inbounds nuw %"struct.Assimp::LWO::Clip", ptr %8, i64 %9
  ret ptr %10
}

; Function Attrs: mustprogress nounwind uwtable
define linkonce_odr hidden noundef i64 @_ZNKSt6vectorIN6Assimp3LWO4ClipESaIS2_EE4sizeEv(ptr noundef nonnull align 8 dereferenceable(24) %0) #0 comdat align 2 {
  %2 = alloca ptr, align 8
  store ptr %0, ptr %2, align 8
  %3 = load ptr, ptr %2, align 8
  %4 = getelementptr inbounds nuw %"struct.std::_Vector_base", ptr %3, i32 0, i32 0
  %5 = getelementptr inbounds nuw %"struct.std::_Vector_base<Assimp::LWO::Clip, std::allocator<Assimp::LWO::Clip>>::_Vector_impl_data", ptr %4, i32 0, i32 1
  %6 = load ptr, ptr %5, align 8
  %7 = getelementptr inbounds nuw %"struct.std::_Vector_base", ptr %3, i32 0, i32 0
  %8 = getelementptr inbounds nuw %"struct.std::_Vector_base<Assimp::LWO::Clip, std::allocator<Assimp::LWO::Clip>>::_Vector_impl_data", ptr %7, i32 0, i32 0
  %9 = load ptr, ptr %8, align 8
  %10 = ptrtoint ptr %6 to i64
  %11 = ptrtoint ptr %9 to i64
  %12 = sub i64 %10, %11
  %13 = sdiv exact i64 %12, 56
  ret i64 %13
}

; Function Attrs: mustprogress uwtable
define hidden void @_ZN6Assimp11LWOImporter12ResolveClipsEv(ptr noundef nonnull align 8 dereferenceable(233) %0) #3 align 2 {
  %2 = alloca ptr, align 8
  %3 = alloca i32, align 4
  %4 = alloca ptr, align 8
  %5 = alloca ptr, align 8
  store ptr %0, ptr %2, align 8
  %6 = load ptr, ptr %2, align 8
  call void @llvm.lifetime.start.p0(i64 4, ptr %3) #18
  store i32 0, ptr %3, align 4
  br label %7

7:                                                ; preds = %63, %1
  %8 = load i32, ptr %3, align 4
  %9 = zext i32 %8 to i64
  %10 = getelementptr inbounds nuw %"class.Assimp::LWOImporter", ptr %6, i32 0, i32 10
  %11 = call noundef i64 @_ZNKSt6vectorIN6Assimp3LWO4ClipESaIS2_EE4sizeEv(ptr noundef nonnull align 8 dereferenceable(24) %10) #18
  %12 = icmp ult i64 %9, %11
  br i1 %12, label %14, label %13

13:                                               ; preds = %7
  call void @llvm.lifetime.end.p0(i64 4, ptr %3) #18
  br label %66

14:                                               ; preds = %7
  call void @llvm.lifetime.start.p0(i64 8, ptr %4) #18
  %15 = getelementptr inbounds nuw %"class.Assimp::LWOImporter", ptr %6, i32 0, i32 10
  %16 = load i32, ptr %3, align 4
  %17 = zext i32 %16 to i64
  %18 = call noundef nonnull align 8 dereferenceable(49) ptr @_ZNSt6vectorIN6Assimp3LWO4ClipESaIS2_EEixEm(ptr noundef nonnull align 8 dereferenceable(24) %15, i64 noundef %17) #18
  store ptr %18, ptr %4, align 8
  %19 = load ptr, ptr %4, align 8
  %20 = getelementptr inbounds nuw %"struct.Assimp::LWO::Clip", ptr %19, i32 0, i32 0
  %21 = load i32, ptr %20, align 8
  %22 = icmp eq i32 2, %21
  br i1 %22, label %23, label %62

23:                                               ; preds = %14
  %24 = load ptr, ptr %4, align 8
  %25 = getelementptr inbounds nuw %"struct.Assimp::LWO::Clip", ptr %24, i32 0, i32 3
  %26 = load i32, ptr %25, align 8
  %27 = zext i32 %26 to i64
  %28 = getelementptr inbounds nuw %"class.Assimp::LWOImporter", ptr %6, i32 0, i32 10
  %29 = call noundef i64 @_ZNKSt6vectorIN6Assimp3LWO4ClipESaIS2_EE4sizeEv(ptr noundef nonnull align 8 dereferenceable(24) %28) #18
  %30 = icmp uge i64 %27, %29
  br i1 %30, label %31, label %35

31:                                               ; preds = %23
  %32 = call noundef ptr @_ZN6Assimp13DefaultLogger3getEv()
  call void @_ZN6Assimp6Logger5errorEPKc(ptr noundef nonnull align 8 dereferenceable(12) %32, ptr noundef @.str.34)
  %33 = load ptr, ptr %4, align 8
  %34 = getelementptr inbounds nuw %"struct.Assimp::LWO::Clip", ptr %33, i32 0, i32 3
  store i32 0, ptr %34, align 8
  br label %35

35:                                               ; preds = %31, %23
  call void @llvm.lifetime.start.p0(i64 8, ptr %5) #18
  %36 = getelementptr inbounds nuw %"class.Assimp::LWOImporter", ptr %6, i32 0, i32 10
  %37 = load ptr, ptr %4, align 8
  %38 = getelementptr inbounds nuw %"struct.Assimp::LWO::Clip", ptr %37, i32 0, i32 3
  %39 = load i32, ptr %38, align 8
  %40 = zext i32 %39 to i64
  %41 = call noundef nonnull align 8 dereferenceable(49) ptr @_ZNSt6vectorIN6Assimp3LWO4ClipESaIS2_EEixEm(ptr noundef nonnull align 8 dereferenceable(24) %36, i64 noundef %40) #18
  store ptr %41, ptr %5, align 8
  %42 = load ptr, ptr %5, align 8
  %43 = getelementptr inbounds nuw %"struct.Assimp::LWO::Clip", ptr %42, i32 0, i32 0
  %44 = load i32, ptr %43, align 8
  %45 = icmp eq i32 2, %44
  br i1 %45, label %46, label %50

46:                                               ; preds = %35
  %47 = call noundef ptr @_ZN6Assimp13DefaultLogger3getEv()
  call void @_ZN6Assimp6Logger5errorEPKc(ptr noundef nonnull align 8 dereferenceable(12) %47, ptr noundef @.str.35)
  %48 = load ptr, ptr %4, align 8
  %49 = getelementptr inbounds nuw %"struct.Assimp::LWO::Clip", ptr %48, i32 0, i32 0
  store i32 3, ptr %49, align 8
  br label %61

50:                                               ; preds = %35
  %51 = load ptr, ptr %5, align 8
  %52 = getelementptr inbounds nuw %"struct.Assimp::LWO::Clip", ptr %51, i32 0, i32 2
  %53 = load ptr, ptr %4, align 8
  %54 = getelementptr inbounds nuw %"struct.Assimp::LWO::Clip", ptr %53, i32 0, i32 2
  %55 = call noundef nonnull align 8 dereferenceable(32) ptr @_ZNSt7__cxx1112basic_stringIcSt11char_traitsIcESaIcEEaSERKS4_(ptr noundef nonnull align 8 dereferenceable(32) %54, ptr noundef nonnull align 8 dereferenceable(32) %52)
  %56 = load ptr, ptr %5, align 8
  %57 = getelementptr inbounds nuw %"struct.Assimp::LWO::Clip", ptr %56, i32 0, i32 0
  %58 = load i32, ptr %57, align 8
  %59 = load ptr, ptr %4, align 8
  %60 = getelementptr inbounds nuw %"struct.Assimp::LWO::Clip", ptr %59, i32 0, i32 0
  store i32 %58, ptr %60, align 8
  br label %61

61:                                               ; preds = %50, %46
  call void @llvm.lifetime.end.p0(i64 8, ptr %5) #18
  br label %62

62:                                               ; preds = %61, %14
  call void @llvm.lifetime.end.p0(i64 8, ptr %4) #18
  br label %63

63:                                               ; preds = %62
  %64 = load i32, ptr %3, align 4
  %65 = add i32 %64, 1
  store i32 %65, ptr %3, align 4
  br label %7, !llvm.loop !21

66:                                               ; preds = %13
  ret void
}