; Function Attrs: mustprogress uwtable
define hidden void @_ZN6Assimp11LWOImporter12ResolveClipsEv(ptr noundef nonnull readonly align 8 captures(none) dereferenceable(233) %0) local_unnamed_addr #3 align 2 {
  %2 = getelementptr inbounds nuw i8, ptr %0, i64 120
  %3 = getelementptr inbounds nuw i8, ptr %0, i64 128
  %4 = load ptr, ptr %3, align 8
  %5 = load ptr, ptr %2, align 8
  %.not15 = icmp eq ptr %4, %5
  br i1 %.not15, label %._crit_edge, label %.lr.ph.preheader

.lr.ph.preheader:                                 ; preds = %1
  %6 = ptrtoint ptr %4 to i64
  %7 = ptrtoint ptr %5 to i64
  %8 = sub i64 %6, %7
  %9 = sdiv exact i64 %8, 56
  br label %.lr.ph

._crit_edge:                                      ; preds = %37, %1
  ret void

.lr.ph:                                           ; preds = %.lr.ph.preheader, %37
  %10 = phi ptr [ %38, %37 ], [ %5, %.lr.ph.preheader ]
  %11 = phi ptr [ %39, %37 ], [ %4, %.lr.ph.preheader ]
  %12 = phi i64 [ %45, %37 ], [ %9, %.lr.ph.preheader ]
  %13 = phi i64 [ %41, %37 ], [ 0, %.lr.ph.preheader ]
  %.014 = phi i32 [ %40, %37 ], [ 0, %.lr.ph.preheader ]
  %14 = getelementptr inbounds nuw %"struct.Assimp::LWO::Clip", ptr %10, i64 %13
  %15 = load i32, ptr %14, align 8
  %16 = icmp eq i32 %15, 2
  br i1 %16, label %17, label %37

17:                                               ; preds = %.lr.ph
  %18 = getelementptr inbounds nuw i8, ptr %14, i64 40
  %19 = load i32, ptr %18, align 8
  %20 = zext i32 %19 to i64
  %.not = icmp ugt i64 %12, %20
  br i1 %.not, label %23, label %21

21:                                               ; preds = %17
  %22 = tail call noundef ptr @_ZN6Assimp13DefaultLogger3getEv()
  tail call void @_ZN6Assimp6Logger5errorEPKc(ptr noundef nonnull align 8 dereferenceable(12) %22, ptr noundef nonnull @.str.34)
  store i32 0, ptr %18, align 8
  %.pre = load ptr, ptr %2, align 8
  br label %23

23:                                               ; preds = %21, %17
  %24 = phi ptr [ %.pre, %21 ], [ %10, %17 ]
  %25 = phi i32 [ 0, %21 ], [ %19, %17 ]
  %26 = zext i32 %25 to i64
  %27 = getelementptr inbounds nuw %"struct.Assimp::LWO::Clip", ptr %24, i64 %26
  %28 = load i32, ptr %27, align 8
  %29 = icmp eq i32 %28, 2
  br i1 %29, label %30, label %32

30:                                               ; preds = %23
  %31 = tail call noundef ptr @_ZN6Assimp13DefaultLogger3getEv()
  tail call void @_ZN6Assimp6Logger5errorEPKc(ptr noundef nonnull align 8 dereferenceable(12) %31, ptr noundef nonnull @.str.35)
  br label %36

32:                                               ; preds = %23
  %33 = getelementptr inbounds nuw i8, ptr %27, i64 8
  %34 = getelementptr inbounds nuw i8, ptr %14, i64 8
  tail call void @_ZNSt7__cxx1112basic_stringIcSt11char_traitsIcESaIcEE9_M_assignERKS4_(ptr noundef nonnull align 8 dereferenceable(32) %34, ptr noundef nonnull align 8 dereferenceable(32) %33)
  %35 = load i32, ptr %27, align 8
  br label %36

36:                                               ; preds = %32, %30
  %storemerge = phi i32 [ %35, %32 ], [ 3, %30 ]
  store i32 %storemerge, ptr %14, align 8
  %.pre16 = load ptr, ptr %3, align 8
  %.pre17 = load ptr, ptr %2, align 8
  br label %37

37:                                               ; preds = %36, %.lr.ph
  %38 = phi ptr [ %.pre17, %36 ], [ %10, %.lr.ph ]
  %39 = phi ptr [ %.pre16, %36 ], [ %11, %.lr.ph ]
  %40 = add i32 %.014, 1
  %41 = zext i32 %40 to i64
  %42 = ptrtoint ptr %39 to i64
  %43 = ptrtoint ptr %38 to i64
  %44 = sub i64 %42, %43
  %45 = sdiv exact i64 %44, 56
  %46 = icmp ugt i64 %45, %41
  br i1 %46, label %.lr.ph, label %._crit_edge, !llvm.loop !33
}